; Function Attrs: nounwind uwtable
define dso_local range(i64 0, 2) i64 @pg_relation_is_publishable(ptr noundef captures(none) %0) local_unnamed_addr #0 {
  %2 = getelementptr inbounds nuw i8, ptr %0, i64 32
  %3 = load i64, ptr %2, align 8
  %4 = trunc i64 %3 to i32
  %5 = and i64 %3, 4294967295
  %6 = tail call ptr @SearchSysCache1(i32 noundef 57, i64 noundef %5) #6
  %.not = icmp eq ptr %6, null
  br i1 %.not, label %7, label %9

7:                                                ; preds = %1
  %8 = getelementptr inbounds nuw i8, ptr %0, i64 28
  store i8 1, ptr %8, align 4
  br label %26

9:                                                ; preds = %1
  %10 = getelementptr i8, ptr %6, i64 16
  %.val = load ptr, ptr %10, align 8
  %11 = getelementptr inbounds nuw i8, ptr %.val, i64 22
  %12 = load i8, ptr %11, align 2
  %13 = zext i8 %12 to i64
  %14 = getelementptr inbounds nuw i8, ptr %.val, i64 %13
  %15 = getelementptr inbounds nuw i8, ptr %14, i64 115
  %16 = load i8, ptr %15, align 1
  switch i8 %16, label %is_publishable_class.exit [
    i8 114, label %17
    i8 112, label %17
  ]

17:                                               ; preds = %9, %9
  %18 = tail call zeroext i1 @IsCatalogRelationOid(i32 noundef %4) #6
  br i1 %18, label %is_publishable_class.exit, label %19

19:                                               ; preds = %17
  %20 = getelementptr inbounds nuw i8, ptr %14, i64 114
  %21 = load i8, ptr %20, align 2
  %22 = icmp eq i8 %21, 112
  %23 = icmp ugt i32 %4, 16383
  %spec.select.i = and i1 %23, %22
  %24 = zext i1 %spec.select.i to i64
  br label %is_publishable_class.exit

is_publishable_class.exit:                        ; preds = %9, %17, %19
  %25 = phi i64 [ 0, %17 ], [ 0, %9 ], [ %24, %19 ]
  tail call void @ReleaseSysCache(ptr noundef nonnull %6) #6
  br label %26

26:                                               ; preds = %is_publishable_class.exit, %7
  %.0 = phi i64 [ %25, %is_publishable_class.exit ], [ 0, %7 ]
  ret i64 %.0
}